target datalayout = "e-m:e-p270:32:32-p271:32:32-p272:64:64-i64:64-i128:128-f80:128-n8:16:32:64-S128"
target triple = "x86_64-pc-linux-gnu"

%class.WirelessFrame = type { %class.QFrame, ptr, ptr, i8, i32 }
%class.QFrame = type { %class.QWidget }
%class.QWidget = type { %class.QObject, %class.QPaintDevice.base, ptr }
%class.QObject = type { ptr, %class.QScopedPointer }
%class.QScopedPointer = type { ptr }
%class.QPaintDevice.base = type <{ ptr, i16 }>
%class.Ui_WirelessFrame = type { ptr, ptr, ptr, ptr, ptr, ptr, ptr, ptr, ptr, ptr, ptr, ptr, ptr, ptr, ptr, ptr, ptr, ptr, ptr, ptr, ptr }

; Function Attrs: mustprogress uwtable
define void @_ZN13WirelessFrame13updateWidgetsEv(ptr noundef nonnull align 8 dereferenceable(64) %0) #0 align 2 {
  %2 = alloca ptr, align 8
  %3 = alloca i8, align 1
  %4 = alloca i8, align 1
  %5 = alloca i8, align 1
  %6 = alloca i8, align 1
  store ptr %0, ptr %2, align 8
  %7 = load ptr, ptr %2, align 8
  store i8 0, ptr %3, align 1
  store i8 0, ptr %4, align 1
  store i8 0, ptr %5, align 1
  store i8 0, ptr %6, align 1
  %8 = getelementptr inbounds %class.WirelessFrame, ptr %7, i32 0, i32 1
  %9 = load ptr, ptr %8, align 8
  %10 = getelementptr inbounds %class.Ui_WirelessFrame, ptr %9, i32 0, i32 5
  %11 = load ptr, ptr %10, align 8
  %12 = call noundef i32 @_ZNK9QComboBox5countEv(ptr noundef nonnull align 8 dereferenceable(40) %11)
  %13 = icmp sgt i32 %12, 0
  br i1 %13, label %14, label %15

14:                                               ; preds = %1
  store i8 1, ptr %3, align 1
  store i8 1, ptr %6, align 1
  br label %15

15:                                               ; preds = %14, %1
  %16 = load i8, ptr %3, align 1
  %17 = trunc i8 %16 to i1
  br i1 %17, label %18, label %26

18:                                               ; preds = %15
  %19 = getelementptr inbounds %class.WirelessFrame, ptr %7, i32 0, i32 1
  %20 = load ptr, ptr %19, align 8
  %21 = getelementptr inbounds %class.Ui_WirelessFrame, ptr %20, i32 0, i32 8
  %22 = load ptr, ptr %21, align 8
  %23 = call noundef i32 @_ZNK9QComboBox5countEv(ptr noundef nonnull align 8 dereferenceable(40) %22)
  %24 = icmp sgt i32 %23, 0
  br i1 %24, label %25, label %26

25:                                               ; preds = %18
  store i8 1, ptr %4, align 1
  br label %26

26:                                               ; preds = %25, %18, %15
  %27 = load i8, ptr %4, align 1
  %28 = trunc i8 %27 to i1
  br i1 %28, label %29, label %37

29:                                               ; preds = %26
  %30 = getelementptr inbounds %class.WirelessFrame, ptr %7, i32 0, i32 1
  %31 = load ptr, ptr %30, align 8
  %32 = getelementptr inbounds %class.Ui_WirelessFrame, ptr %31, i32 0, i32 9
  %33 = load ptr, ptr %32, align 8
  %34 = call noundef i32 @_ZNK9QComboBox5countEv(ptr noundef nonnull align 8 dereferenceable(40) %33)
  %35 = icmp sgt i32 %34, 1
  br i1 %35, label %36, label %37

36:                                               ; preds = %29
  store i8 1, ptr %5, align 1
  br label %37

37:                                               ; preds = %36, %29, %26
  %38 = getelementptr inbounds %class.WirelessFrame, ptr %7, i32 0, i32 1
  %39 = load ptr, ptr %38, align 8
  %40 = getelementptr inbounds %class.Ui_WirelessFrame, ptr %39, i32 0, i32 5
  %41 = load ptr, ptr %40, align 8
  %42 = load i8, ptr %3, align 1
  %43 = trunc i8 %42 to i1
  call void @_ZN7QWidget10setEnabledEb(ptr noundef nonnull align 8 dereferenceable(40) %41, i1 noundef zeroext %43)
  %44 = getelementptr inbounds %class.WirelessFrame, ptr %7, i32 0, i32 1
  %45 = load ptr, ptr %44, align 8
  %46 = getelementptr inbounds %class.Ui_WirelessFrame, ptr %45, i32 0, i32 8
  %47 = load ptr, ptr %46, align 8
  %48 = load i8, ptr %4, align 1
  %49 = trunc i8 %48 to i1
  call void @_ZN7QWidget10setEnabledEb(ptr noundef nonnull align 8 dereferenceable(40) %47, i1 noundef zeroext %49)
  %50 = getelementptr inbounds %class.WirelessFrame, ptr %7, i32 0, i32 1
  %51 = load ptr, ptr %50, align 8
  %52 = getelementptr inbounds %class.Ui_WirelessFrame, ptr %51, i32 0, i32 9
  %53 = load ptr, ptr %52, align 8
  %54 = load i8, ptr %5, align 1
  %55 = trunc i8 %54 to i1
  call void @_ZN7QWidget10setEnabledEb(ptr noundef nonnull align 8 dereferenceable(40) %53, i1 noundef zeroext %55)
  %56 = getelementptr inbounds %class.WirelessFrame, ptr %7, i32 0, i32 1
  %57 = load ptr, ptr %56, align 8
  %58 = getelementptr inbounds %class.Ui_WirelessFrame, ptr %57, i32 0, i32 14
  %59 = load ptr, ptr %58, align 8
  %60 = getelementptr inbounds %class.WirelessFrame, ptr %7, i32 0, i32 3
  %61 = load i8, ptr %60, align 8
  %62 = trunc i8 %61 to i1
  br i1 %62, label %66, label %63

63:                                               ; preds = %37
  %64 = load i8, ptr %6, align 1
  %65 = trunc i8 %64 to i1
  br label %66

66:                                               ; preds = %63, %37
  %67 = phi i1 [ false, %37 ], [ %65, %63 ]
  call void @_ZN7QWidget10setEnabledEb(ptr noundef nonnull align 8 dereferenceable(40) %59, i1 noundef zeroext %67)
  ret void
}