; Function Attrs: mustprogress uwtable
define void @_ZN13WirelessFrame13updateWidgetsEv(ptr nocapture noundef nonnull readonly align 8 dereferenceable(64) %0) local_unnamed_addr #0 align 2 {
  %2 = getelementptr inbounds i8, ptr %0, i64 40
  %3 = load ptr, ptr %2, align 8
  %4 = getelementptr inbounds i8, ptr %3, i64 40
  %5 = load ptr, ptr %4, align 8
  %6 = tail call noundef i32 @_ZNK9QComboBox5countEv(ptr noundef nonnull align 8 dereferenceable(40) %5)
  %7 = icmp sgt i32 %6, 0
  br i1 %7, label %8, label %.thread

8:                                                ; preds = %1
  %9 = load ptr, ptr %2, align 8
  %10 = getelementptr inbounds i8, ptr %9, i64 64
  %11 = load ptr, ptr %10, align 8
  %12 = tail call noundef i32 @_ZNK9QComboBox5countEv(ptr noundef nonnull align 8 dereferenceable(40) %11)
  %13 = icmp sgt i32 %12, 0
  br i1 %13, label %14, label %.thread

14:                                               ; preds = %8
  %15 = load ptr, ptr %2, align 8
  %16 = getelementptr inbounds i8, ptr %15, i64 72
  %17 = load ptr, ptr %16, align 8
  %18 = tail call noundef i32 @_ZNK9QComboBox5countEv(ptr noundef nonnull align 8 dereferenceable(40) %17)
  %19 = icmp sgt i32 %18, 1
  br label %.thread

.thread:                                          ; preds = %1, %14, %8
  %.0711 = phi i1 [ false, %8 ], [ true, %14 ], [ false, %1 ]
  %.06 = phi i1 [ false, %8 ], [ %19, %14 ], [ false, %1 ]
  %20 = load ptr, ptr %2, align 8
  %21 = getelementptr inbounds i8, ptr %20, i64 40
  %22 = load ptr, ptr %21, align 8
  tail call void @_ZN7QWidget10setEnabledEb(ptr noundef nonnull align 8 dereferenceable(40) %22, i1 noundef zeroext %7)
  %23 = load ptr, ptr %2, align 8
  %24 = getelementptr inbounds i8, ptr %23, i64 64
  %25 = load ptr, ptr %24, align 8
  tail call void @_ZN7QWidget10setEnabledEb(ptr noundef nonnull align 8 dereferenceable(40) %25, i1 noundef zeroext %.0711)
  %26 = load ptr, ptr %2, align 8
  %27 = getelementptr inbounds i8, ptr %26, i64 72
  %28 = load ptr, ptr %27, align 8
  tail call void @_ZN7QWidget10setEnabledEb(ptr noundef nonnull align 8 dereferenceable(40) %28, i1 noundef zeroext %.06)
  %29 = load ptr, ptr %2, align 8
  %30 = getelementptr inbounds i8, ptr %29, i64 112
  %31 = load ptr, ptr %30, align 8
  %32 = getelementptr inbounds i8, ptr %0, i64 56
  %33 = load i8, ptr %32, align 8
  %34 = and i8 %33, 1
  %.not = icmp eq i8 %34, 0
  %35 = and i1 %7, %.not
  tail call void @_ZN7QWidget10setEnabledEb(ptr noundef nonnull align 8 dereferenceable(40) %31, i1 noundef zeroext %35)
  ret void
}